target datalayout = "e-m:e-p270:32:32-p271:32:32-p272:64:64-i64:64-i128:128-f80:128-n8:16:32:64-S128"
target triple = "x86_64-pc-linux-gnu"

%struct.Parser = type { ptr, ptr, i32, i32, i32, ptr, ptr, ptr, i32, i32, ptr, i32, ptr, i32, i32, i32, i32, i32, %struct.growable_comment_array, ptr, i32, i32, i32 }
%struct.growable_comment_array = type { ptr, i64, i64 }
%struct.tok_state = type { ptr, ptr, ptr, i32, ptr, ptr, ptr, ptr, i32, ptr, i32, i32, [100 x i32], i32, i32, ptr, ptr, i32, i32, i32, i32, i32, [200 x i8], [200 x i32], [200 x i32], ptr, [100 x i32], i32, i32, ptr, i32, ptr, ptr, ptr, ptr, ptr, ptr, ptr, ptr, i32, i32, ptr, i32, [150 x %struct._tokenizer_mode], i32, i32, i32, i32 }
%struct._tokenizer_mode = type { i32, i32, i32, i8, i32, i32, ptr, ptr, i32, i64, i64, i64, i64, ptr, i32, i32 }

; Function Attrs: nounwind uwtable
define internal i32 @growable_comment_array_init(ptr noundef %0, i64 noundef %1) #0 {
  %3 = alloca ptr, align 8
  %4 = alloca i64, align 8
  store ptr %0, ptr %3, align 8, !tbaa !4
  store i64 %1, ptr %4, align 8, !tbaa !20
  %5 = load i64, ptr %4, align 8, !tbaa !20
  %6 = mul i64 %5, 16
  %7 = call ptr @PyMem_Malloc(i64 noundef %6)
  %8 = load ptr, ptr %3, align 8, !tbaa !4
  %9 = getelementptr inbounds nuw %struct.growable_comment_array, ptr %8, i32 0, i32 0
  store ptr %7, ptr %9, align 8, !tbaa !63
  %10 = load i64, ptr %4, align 8, !tbaa !20
  %11 = load ptr, ptr %3, align 8, !tbaa !4
  %12 = getelementptr inbounds nuw %struct.growable_comment_array, ptr %11, i32 0, i32 1
  store i64 %10, ptr %12, align 8, !tbaa !62
  %13 = load ptr, ptr %3, align 8, !tbaa !4
  %14 = getelementptr inbounds nuw %struct.growable_comment_array, ptr %13, i32 0, i32 2
  store i64 0, ptr %14, align 8, !tbaa !61
  %15 = load ptr, ptr %3, align 8, !tbaa !4
  %16 = getelementptr inbounds nuw %struct.growable_comment_array, ptr %15, i32 0, i32 0
  %17 = load ptr, ptr %16, align 8, !tbaa !63
  %18 = icmp ne ptr %17, null
  %19 = zext i1 %18 to i32
  ret i32 %19
}

; Function Attrs: nounwind uwtable
define hidden ptr @_PyPegen_Parser_New(ptr noundef %0, i32 noundef %1, i32 noundef %2, i32 noundef %3, ptr noundef %4, ptr noundef %5) #0 {
  %7 = alloca ptr, align 8
  %8 = alloca ptr, align 8
  %9 = alloca i32, align 4
  %10 = alloca i32, align 4
  %11 = alloca i32, align 4
  %12 = alloca ptr, align 8
  %13 = alloca ptr, align 8
  %14 = alloca ptr, align 8
  %15 = alloca i32, align 4
  store ptr %0, ptr %8, align 8, !tbaa !116
  store i32 %1, ptr %9, align 4, !tbaa !18
  store i32 %2, ptr %10, align 4, !tbaa !18
  store i32 %3, ptr %11, align 4, !tbaa !18
  store ptr %4, ptr %12, align 8, !tbaa !117
  store ptr %5, ptr %13, align 8, !tbaa !118
  call void @llvm.lifetime.start.p0(i64 8, ptr %14) #10
  %16 = call ptr @PyMem_Malloc(i64 noundef 160)
  store ptr %16, ptr %14, align 8, !tbaa !4
  %17 = load ptr, ptr %14, align 8, !tbaa !4
  %18 = icmp eq ptr %17, null
  br i1 %18, label %19, label %21

19:                                               ; preds = %6
  %20 = call ptr @PyErr_NoMemory()
  store ptr %20, ptr %7, align 8
  store i32 1, ptr %15, align 4
  br label %120

21:                                               ; preds = %6
  %22 = load i32, ptr %10, align 4, !tbaa !18
  %23 = and i32 %22, 64
  %24 = icmp sgt i32 %23, 0
  %25 = zext i1 %24 to i32
  %26 = load ptr, ptr %8, align 8, !tbaa !116
  %27 = getelementptr inbounds nuw %struct.tok_state, ptr %26, i32 0, i32 39
  store i32 %25, ptr %27, align 8, !tbaa !119
  %28 = load ptr, ptr %8, align 8, !tbaa !116
  %29 = load ptr, ptr %14, align 8, !tbaa !4
  %30 = getelementptr inbounds nuw %struct.Parser, ptr %29, i32 0, i32 0
  store ptr %28, ptr %30, align 8, !tbaa !45
  %31 = load ptr, ptr %14, align 8, !tbaa !4
  %32 = getelementptr inbounds nuw %struct.Parser, ptr %31, i32 0, i32 6
  store ptr null, ptr %32, align 8, !tbaa !120
  %33 = load ptr, ptr %14, align 8, !tbaa !4
  %34 = getelementptr inbounds nuw %struct.Parser, ptr %33, i32 0, i32 8
  store i32 -1, ptr %34, align 8, !tbaa !121
  %35 = load ptr, ptr %14, align 8, !tbaa !4
  %36 = getelementptr inbounds nuw %struct.Parser, ptr %35, i32 0, i32 7
  store ptr null, ptr %36, align 8, !tbaa !110
  %37 = call ptr @PyMem_Malloc(i64 noundef 8)
  %38 = load ptr, ptr %14, align 8, !tbaa !4
  %39 = getelementptr inbounds nuw %struct.Parser, ptr %38, i32 0, i32 1
  store ptr %37, ptr %39, align 8, !tbaa !40
  %40 = load ptr, ptr %14, align 8, !tbaa !4
  %41 = getelementptr inbounds nuw %struct.Parser, ptr %40, i32 0, i32 1
  %42 = load ptr, ptr %41, align 8, !tbaa !40
  %43 = icmp ne ptr %42, null
  br i1 %43, label %47, label %44

44:                                               ; preds = %21
  %45 = load ptr, ptr %14, align 8, !tbaa !4
  call void @PyMem_Free(ptr noundef %45)
  %46 = call ptr @PyErr_NoMemory()
  store ptr %46, ptr %7, align 8
  store i32 1, ptr %15, align 4
  br label %120

47:                                               ; preds = %21
  %48 = call ptr @PyMem_Calloc(i64 noundef 1, i64 noundef 56)
  %49 = load ptr, ptr %14, align 8, !tbaa !4
  %50 = getelementptr inbounds nuw %struct.Parser, ptr %49, i32 0, i32 1
  %51 = load ptr, ptr %50, align 8, !tbaa !40
  %52 = getelementptr ptr, ptr %51, i64 0
  store ptr %48, ptr %52, align 8, !tbaa !4
  %53 = load ptr, ptr %14, align 8, !tbaa !4
  %54 = getelementptr inbounds nuw %struct.Parser, ptr %53, i32 0, i32 1
  %55 = load ptr, ptr %54, align 8, !tbaa !40
  %56 = getelementptr ptr, ptr %55, i64 0
  %57 = load ptr, ptr %56, align 8, !tbaa !4
  %58 = icmp ne ptr %57, null
  br i1 %58, label %65, label %59

59:                                               ; preds = %47
  %60 = load ptr, ptr %14, align 8, !tbaa !4
  %61 = getelementptr inbounds nuw %struct.Parser, ptr %60, i32 0, i32 1
  %62 = load ptr, ptr %61, align 8, !tbaa !40
  call void @PyMem_Free(ptr noundef %62)
  %63 = load ptr, ptr %14, align 8, !tbaa !4
  call void @PyMem_Free(ptr noundef %63)
  %64 = call ptr @PyErr_NoMemory()
  store ptr %64, ptr %7, align 8
  store i32 1, ptr %15, align 4
  br label %120

65:                                               ; preds = %47
  %66 = load ptr, ptr %14, align 8, !tbaa !4
  %67 = getelementptr inbounds nuw %struct.Parser, ptr %66, i32 0, i32 18
  %68 = call i32 @growable_comment_array_init(ptr noundef %67, i64 noundef 10)
  %69 = icmp ne i32 %68, 0
  br i1 %69, label %81, label %70

70:                                               ; preds = %65
  %71 = load ptr, ptr %14, align 8, !tbaa !4
  %72 = getelementptr inbounds nuw %struct.Parser, ptr %71, i32 0, i32 1
  %73 = load ptr, ptr %72, align 8, !tbaa !40
  %74 = getelementptr ptr, ptr %73, i64 0
  %75 = load ptr, ptr %74, align 8, !tbaa !4
  call void @PyMem_Free(ptr noundef %75)
  %76 = load ptr, ptr %14, align 8, !tbaa !4
  %77 = getelementptr inbounds nuw %struct.Parser, ptr %76, i32 0, i32 1
  %78 = load ptr, ptr %77, align 8, !tbaa !40
  call void @PyMem_Free(ptr noundef %78)
  %79 = load ptr, ptr %14, align 8, !tbaa !4
  call void @PyMem_Free(ptr noundef %79)
  %80 = call ptr @PyErr_NoMemory()
  store ptr %80, ptr %7, align 8
  store i32 1, ptr %15, align 4
  br label %120

81:                                               ; preds = %65
  %82 = load ptr, ptr %14, align 8, !tbaa !4
  %83 = getelementptr inbounds nuw %struct.Parser, ptr %82, i32 0, i32 2
  store i32 0, ptr %83, align 8, !tbaa !38
  %84 = load ptr, ptr %14, align 8, !tbaa !4
  %85 = getelementptr inbounds nuw %struct.Parser, ptr %84, i32 0, i32 3
  store i32 0, ptr %85, align 4, !tbaa !59
  %86 = load ptr, ptr %14, align 8, !tbaa !4
  %87 = getelementptr inbounds nuw %struct.Parser, ptr %86, i32 0, i32 4
  store i32 1, ptr %87, align 8, !tbaa !60
  %88 = load ptr, ptr %12, align 8, !tbaa !117
  %89 = load ptr, ptr %14, align 8, !tbaa !4
  %90 = getelementptr inbounds nuw %struct.Parser, ptr %89, i32 0, i32 10
  store ptr %88, ptr %90, align 8, !tbaa !8
  %91 = load ptr, ptr %13, align 8, !tbaa !118
  %92 = load ptr, ptr %14, align 8, !tbaa !4
  %93 = getelementptr inbounds nuw %struct.Parser, ptr %92, i32 0, i32 5
  store ptr %91, ptr %93, align 8, !tbaa !32
  %94 = load i32, ptr %9, align 4, !tbaa !18
  %95 = load ptr, ptr %14, align 8, !tbaa !4
  %96 = getelementptr inbounds nuw %struct.Parser, ptr %95, i32 0, i32 9
  store i32 %94, ptr %96, align 4, !tbaa !54
  %97 = load ptr, ptr %14, align 8, !tbaa !4
  %98 = getelementptr inbounds nuw %struct.Parser, ptr %97, i32 0, i32 11
  store i32 0, ptr %98, align 8, !tbaa !55
  %99 = load ptr, ptr %14, align 8, !tbaa !4
  %100 = getelementptr inbounds nuw %struct.Parser, ptr %99, i32 0, i32 12
  store ptr null, ptr %100, align 8, !tbaa !89
  %101 = load ptr, ptr %14, align 8, !tbaa !4
  %102 = getelementptr inbounds nuw %struct.Parser, ptr %101, i32 0, i32 15
  store i32 0, ptr %102, align 8, !tbaa !86
  %103 = load ptr, ptr %14, align 8, !tbaa !4
  %104 = getelementptr inbounds nuw %struct.Parser, ptr %103, i32 0, i32 13
  store i32 0, ptr %104, align 8, !tbaa !79
  %105 = load ptr, ptr %14, align 8, !tbaa !4
  %106 = getelementptr inbounds nuw %struct.Parser, ptr %105, i32 0, i32 14
  store i32 0, ptr %106, align 4, !tbaa !80
  %107 = load i32, ptr %10, align 4, !tbaa !18
  %108 = load ptr, ptr %14, align 8, !tbaa !4
  %109 = getelementptr inbounds nuw %struct.Parser, ptr %108, i32 0, i32 16
  store i32 %107, ptr %109, align 4, !tbaa !57
  %110 = load i32, ptr %11, align 4, !tbaa !18
  %111 = load ptr, ptr %14, align 8, !tbaa !4
  %112 = getelementptr inbounds nuw %struct.Parser, ptr %111, i32 0, i32 17
  store i32 %110, ptr %112, align 8, !tbaa !113
  %113 = load ptr, ptr %14, align 8, !tbaa !4
  %114 = getelementptr inbounds nuw %struct.Parser, ptr %113, i32 0, i32 19
  store ptr null, ptr %114, align 8, !tbaa !122
  %115 = load ptr, ptr %14, align 8, !tbaa !4
  %116 = getelementptr inbounds nuw %struct.Parser, ptr %115, i32 0, i32 20
  store i32 0, ptr %116, align 8, !tbaa !123
  %117 = load ptr, ptr %14, align 8, !tbaa !4
  %118 = getelementptr inbounds nuw %struct.Parser, ptr %117, i32 0, i32 21
  store i32 0, ptr %118, align 4, !tbaa !124
  %119 = load ptr, ptr %14, align 8, !tbaa !4
  store ptr %119, ptr %7, align 8
  store i32 1, ptr %15, align 4
  br label %120

120:                                              ; preds = %81, %70, %59, %44, %19
  call void @llvm.lifetime.end.p0(i64 8, ptr %14) #10
  %121 = load ptr, ptr %7, align 8
  ret ptr %121
}