; Function Attrs: nounwind uwtable
define hidden ptr @_PyPegen_Parser_New(ptr noundef %0, i32 noundef %1, i32 noundef %2, i32 noundef %3, ptr noundef %4, ptr noundef %5) local_unnamed_addr #1 {
  %7 = tail call ptr @PyMem_Malloc(i64 noundef 160) #13
  %8 = icmp eq ptr %7, null
  br i1 %8, label %9, label %11

9:                                                ; preds = %6
  %10 = tail call ptr @PyErr_NoMemory() #13
  br label %50

11:                                               ; preds = %6
  %12 = lshr i32 %2, 6
  %.lobit = and i32 %12, 1
  %13 = getelementptr inbounds nuw i8, ptr %0, i64 2832
  store i32 %.lobit, ptr %13, align 8, !tbaa !115
  store ptr %0, ptr %7, align 8, !tbaa !42
  %14 = getelementptr inbounds nuw i8, ptr %7, i64 40
  store ptr null, ptr %14, align 8, !tbaa !66
  %15 = getelementptr inbounds nuw i8, ptr %7, i64 56
  store i32 -1, ptr %15, align 8, !tbaa !65
  %16 = getelementptr inbounds nuw i8, ptr %7, i64 48
  store ptr null, ptr %16, align 8, !tbaa !108
  %17 = tail call ptr @PyMem_Malloc(i64 noundef 8) #13
  %18 = getelementptr inbounds nuw i8, ptr %7, i64 8
  store ptr %17, ptr %18, align 8, !tbaa !35
  %.not = icmp eq ptr %17, null
  br i1 %.not, label %19, label %21

19:                                               ; preds = %11
  tail call void @PyMem_Free(ptr noundef nonnull %7) #13
  %20 = tail call ptr @PyErr_NoMemory() #13
  br label %50

21:                                               ; preds = %11
  %22 = tail call ptr @PyMem_Calloc(i64 noundef 1, i64 noundef 56) #13
  %23 = load ptr, ptr %18, align 8, !tbaa !35
  store ptr %22, ptr %23, align 8, !tbaa !36
  %24 = load ptr, ptr %18, align 8, !tbaa !35
  %25 = load ptr, ptr %24, align 8, !tbaa !36
  %.not42 = icmp eq ptr %25, null
  br i1 %.not42, label %26, label %28

26:                                               ; preds = %21
  tail call void @PyMem_Free(ptr noundef nonnull %24) #13
  tail call void @PyMem_Free(ptr noundef nonnull %7) #13
  %27 = tail call ptr @PyErr_NoMemory() #13
  br label %50

28:                                               ; preds = %21
  %29 = getelementptr inbounds nuw i8, ptr %7, i64 112
  %30 = tail call ptr @PyMem_Malloc(i64 noundef 160) #13
  store ptr %30, ptr %29, align 8, !tbaa !53
  %31 = getelementptr inbounds nuw i8, ptr %7, i64 120
  store i64 10, ptr %31, align 8, !tbaa !52
  %32 = getelementptr inbounds nuw i8, ptr %7, i64 128
  store i64 0, ptr %32, align 8, !tbaa !51
  %.not44 = icmp eq ptr %30, null
  br i1 %.not44, label %33, label %38

33:                                               ; preds = %28
  %34 = load ptr, ptr %18, align 8, !tbaa !35
  %35 = load ptr, ptr %34, align 8, !tbaa !36
  tail call void @PyMem_Free(ptr noundef %35) #13
  %36 = load ptr, ptr %18, align 8, !tbaa !35
  tail call void @PyMem_Free(ptr noundef %36) #13
  tail call void @PyMem_Free(ptr noundef nonnull %7) #13
  %37 = tail call ptr @PyErr_NoMemory() #13
  br label %50

38:                                               ; preds = %28
  %39 = getelementptr inbounds nuw i8, ptr %7, i64 16
  store i32 0, ptr %39, align 8, !tbaa !33
  %40 = getelementptr inbounds nuw i8, ptr %7, i64 20
  store i32 0, ptr %40, align 4, !tbaa !62
  %41 = getelementptr inbounds nuw i8, ptr %7, i64 24
  store i32 1, ptr %41, align 8, !tbaa !63
  %42 = getelementptr inbounds nuw i8, ptr %7, i64 64
  store ptr %4, ptr %42, align 8, !tbaa !4
  %43 = getelementptr inbounds nuw i8, ptr %7, i64 32
  store ptr %5, ptr %43, align 8, !tbaa !28
  %44 = getelementptr inbounds nuw i8, ptr %7, i64 60
  store i32 %1, ptr %44, align 4, !tbaa !57
  %45 = getelementptr inbounds nuw i8, ptr %7, i64 72
  store i32 0, ptr %45, align 8, !tbaa !58
  %46 = getelementptr inbounds nuw i8, ptr %7, i64 80
  %47 = getelementptr inbounds nuw i8, ptr %7, i64 100
  tail call void @llvm.memset.p0.i64(ptr noundef nonnull align 8 dereferenceable(20) %46, i8 0, i64 20, i1 false)
  store i32 %2, ptr %47, align 4, !tbaa !60
  %48 = getelementptr inbounds nuw i8, ptr %7, i64 104
  store i32 %3, ptr %48, align 8, !tbaa !112
  %49 = getelementptr inbounds nuw i8, ptr %7, i64 136
  tail call void @llvm.memset.p0.i64(ptr noundef nonnull align 8 dereferenceable(16) %49, i8 0, i64 16, i1 false)
  br label %50

50:                                               ; preds = %38, %33, %26, %19, %9
  %.0 = phi ptr [ %10, %9 ], [ %7, %38 ], [ %37, %33 ], [ %27, %26 ], [ %20, %19 ]
  ret ptr %.0
}